target datalayout = "e-m:e-p270:32:32-p271:32:32-p272:64:64-i64:64-i128:128-f80:128-n8:16:32:64-S128"
target triple = "x86_64-pc-linux-gnu"

; Function Attrs: nounwind uwtable
define internal i32 @cpy_utf8(i64 noundef %0, ptr noundef %1) #0 {
  %3 = alloca i64, align 8
  %4 = alloca ptr, align 8
  %5 = alloca ptr, align 8
  %6 = alloca i32, align 4
  store i64 %0, ptr %3, align 8, !tbaa !15
  store ptr %1, ptr %4, align 8, !tbaa !17
  call void @llvm.lifetime.start.p0(i64 8, ptr %5) #6
  call void @llvm.lifetime.start.p0(i64 4, ptr %6) #6
  %7 = load ptr, ptr %4, align 8, !tbaa !17
  store ptr %7, ptr %5, align 8, !tbaa !29
  %8 = load ptr, ptr %5, align 8, !tbaa !29
  %9 = load ptr, ptr %8, align 8, !tbaa !11
  %10 = load i64, ptr %3, align 8, !tbaa !15
  %11 = call i32 @UTF8_putc(ptr noundef %9, i32 noundef 255, i64 noundef %10)
  store i32 %11, ptr %6, align 4, !tbaa !13
  %12 = load i32, ptr %6, align 4, !tbaa !13
  %13 = load ptr, ptr %5, align 8, !tbaa !29
  %14 = load ptr, ptr %13, align 8, !tbaa !11
  %15 = sext i32 %12 to i64
  %16 = getelementptr inbounds i8, ptr %14, i64 %15
  store ptr %16, ptr %13, align 8, !tbaa !11
  call void @llvm.lifetime.end.p0(i64 4, ptr %6) #6
  call void @llvm.lifetime.end.p0(i64 8, ptr %5) #6
  ret i32 1
}