; Function Attrs: nounwind uwtable
define internal noundef i32 @cpy_utf8(i64 noundef %0, ptr noundef captures(none) %1) #0 {
  %3 = load ptr, ptr %1, align 8, !tbaa !22
  %4 = tail call i32 @UTF8_putc(ptr noundef %3, i32 noundef 255, i64 noundef %0) #8
  %5 = load ptr, ptr %1, align 8, !tbaa !22
  %6 = sext i32 %4 to i64
  %7 = getelementptr inbounds i8, ptr %5, i64 %6
  store ptr %7, ptr %1, align 8, !tbaa !22
  ret i32 1
}